(dp0
S'PACKER'
p1
(dp2
S'within'
p3
cnumpy.core.multiarray
scalar
p4
(cnumpy
dtype
p5
(S'f8'
p6
I0
I1
tp7
Rp8
(I3
S'<'
p9
NNNI-1
I-1
I0
tp10
bS'\x9d\x97 Ev\xfe\x0f@'
p11
tp12
Rp13
sS'determinism'
p14
g4
(g8
S'\x00\xb1\xf4>\xe9\xd8\xe8?'
p15
tp16
Rp17
sS'between'
p18
g4
(g8
S'f\xd8\xf1\xdb\xad"\x12\xc0'
p19
tp20
Rp21
sS'specificity'
p22
g4
(g8
S'\xdeJ\x11\xa5\x1f\x14\xe2?'
p23
tp24
Rp25
ssS'Copy and Tweak'
p26
(dp27
g14
g4
(g8
S'\xa0\x81\xa3\xfbln\x16@'
p28
tp29
Rp30
sS'tolerance'
p31
F1.0
sg22
g4
(g8
S'BN\xb5\xa1D\xb8\x12@'
p32
tp33
Rp34
ssS'Hierarchical Sampling'
p35
(dp36
S'category_variance_bias'
p37
g4
(g8
S'\xe9L\x994\x01\x00\xf0?'
p38
tp39
Rp40
sg14
g4
(g8
S'\x9a\xf9J&\xee\x94\x1c@'
p41
tp42
Rp43
sS'category_mean_bias'
p44
F1e-10
sS'domain_variance_bias'
p45
g4
(g8
S'\xc0\xae\xc4\xaaX`\xfd?'
p46
tp47
Rp48
ss.