(dp0
S'PACKER'
p1
(dp2
S'determinism'
p3
cnumpy.core.multiarray
scalar
p4
(cnumpy
dtype
p5
(S'f8'
p6
I0
I1
tp7
Rp8
(I3
S'<'
p9
NNNI-1
I-1
I0
tp10
bS'\n\xc6\x02q\x1f\xa6\x1a@'
p11
tp12
Rp13
sS'tradeoff'
p14
g4
(g8
S'\xb6\xef\x81\xe8w\xcd\xe0?'
p15
tp16
Rp17
sS'specificity'
p18
g4
(g8
S'\xd8\xa7!r\xa7\xe0\xde?'
p19
tp20
Rp21
ssS'Copy and Tweak'
p22
(dp23
g3
g4
(g8
S'\x95\x1f3Nw\xc5\x07@'
p24
tp25
Rp26
sg18
g4
(g8
S'\xb1\xad\xff\xf9\x8d\x8b\t@'
p27
tp28
Rp29
ssS'Hierarchical Sampling'
p30
(dp31
S'category_variance_bias'
p32
g4
(g8
S'\xf4@f\\ b\x16@'
p33
tp34
Rp35
sg3
g4
(g8
S".\xb4\xbd'\xe0c\t@"
p36
tp37
Rp38
sS'category_mean_bias'
p39
F1e-10
sS'domain_variance_bias'
p40
g4
(g8
S'\xafA\xd7\x92j\xeb\xab?'
p41
tp42
Rp43
ss.