(dp0
S'PACKER'
p1
(dp2
S'determinism'
p3
cnumpy.core.multiarray
scalar
p4
(cnumpy
dtype
p5
(S'f8'
p6
I0
I1
tp7
Rp8
(I3
S'<'
p9
NNNI-1
I-1
I0
tp10
bS'=\x84\x8dY\x1f\x80\x04@'
p11
tp12
Rp13
sS'tradeoff'
p14
g4
(g8
S'\xdd\x8f\x02\x93\x10E\x00@'
p15
tp16
Rp17
sS'specificity'
p18
g4
(g8
S'\xa8\x986\xf5\x07\x0b\xed?'
p19
tp20
Rp21
ssS'Copy and Tweak'
p22
(dp23
g3
g4
(g8
S'\x02\x81\xc5\x1b\xd9\xbd\x07@'
p24
tp25
Rp26
sg18
g4
(g8
S'\xa6\xa7\x17\x81<\x84\t@'
p27
tp28
Rp29
ssS'Hierarchical Sampling'
p30
(dp31
S'category_variance_bias'
p32
g4
(g8
S'\xa4\x7f\x9fz\x0b\x00\xf0?'
p33
tp34
Rp35
sg3
g4
(g8
S'\xb1\xa4\x8bw\xc2\x1fE@'
p36
tp37
Rp38
sS'category_mean_bias'
p39
g4
(g8
S'\xf3\xdd\xa0\xd48%5@'
p40
tp41
Rp42
sS'domain_variance_bias'
p43
g4
(g8
S'6\xa5\x85\xd2"V,@'
p44
tp45
Rp46
ss.