(dp0
S'PACKER'
p1
(dp2
S'determinism'
p3
cnumpy.core.multiarray
scalar
p4
(cnumpy
dtype
p5
(S'f8'
p6
I0
I1
tp7
Rp8
(I3
S'<'
p9
NNNI-1
I-1
I0
tp10
bS'\xbe\xe8\xd6\xcd\xec?\xd2?'
p11
tp12
Rp13
sS'tradeoff'
p14
g4
(g8
S'\xcfL\x05\xe9\xf4\x1a\xe6?'
p15
tp16
Rp17
sS'specificity'
p18
g4
(g8
S'\x81\xfa\x99.I3\x07@'
p19
tp20
Rp21
ssS'Copy and Tweak'
p22
(dp23
g3
g4
(g8
S'\x0b\xb9\xa6\xb7\x01=\xef?'
p24
tp25
Rp26
sg18
g4
(g8
S'\xa2\xd2k\xd4qZ\x07@'
p27
tp28
Rp29
ssS'Hierarchical Sampling'
p30
(dp31
S'category_variance_bias'
p32
g4
(g8
S'.\xfb>\xfc\xe2X?@'
p33
tp34
Rp35
sg3
g4
(g8
S'\xae\x1e\x06\xd6\x08R\x0b@'
p36
tp37
Rp38
sS'category_mean_bias'
p39
g4
(g8
S'\xd1+\xcc\xff7\x12\xdc='
p40
tp41
Rp42
sS'domain_variance_bias'
p43
g4
(g8
S'\x92\x80c8\x15#\t@'
p44
tp45
Rp46
ss.