(dp0
S'PACKER'
p1
(dp2
S'determinism'
p3
cnumpy.core.multiarray
scalar
p4
(cnumpy
dtype
p5
(S'f8'
p6
I0
I1
tp7
Rp8
(I3
S'<'
p9
NNNI-1
I-1
I0
tp10
bS'\x1e3/#@\xf7\xf4?'
p11
tp12
Rp13
sS'tradeoff'
p14
g4
(g8
S'd{w\xa2\x9b{\x86?'
p15
tp16
Rp17
sS'specificity'
p18
g4
(g8
S'\xe6\n\xd7\x85\xd9\x1e\xa5@'
p19
tp20
Rp21
ssS'Copy and Tweak'
p22
(dp23
g3
g4
(g8
S'>\x10\x943\xbb\x0f\xfb?'
p24
tp25
Rp26
sg18
g4
(g8
S'z\x88G\n\xc7\xa1\xf5?'
p27
tp28
Rp29
ssS'Hierarchical Sampling'
p30
(dp31
S'category_variance_bias'
p32
g4
(g8
S'\xda\x0f\xb51\x9f\xde\x02@'
p33
tp34
Rp35
sg3
g4
(g8
S'\x9c\xec\xe0\x1c\xe3\x9f\x07@'
p36
tp37
Rp38
sS'category_mean_bias'
p39
g4
(g8
S"7\xf8\x0e\x82;>'@"
p40
tp41
Rp42
sS'domain_variance_bias'
p43
g4
(g8
S'\xd0H"\x13\x8c\x1c\xf1?'
p44
tp45
Rp46
ss.