(dp0
S'PACKER'
p1
(dp2
S'determinism'
p3
cnumpy.core.multiarray
scalar
p4
(cnumpy
dtype
p5
(S'f8'
p6
I0
I1
tp7
Rp8
(I3
S'<'
p9
NNNI-1
I-1
I0
tp10
bS'\x0fL?\x02\xf5\x19\xdc?'
p11
tp12
Rp13
sS'tradeoff'
p14
g4
(g8
S'\r\xf6\x96\xde\xe6\x7f\x02@'
p15
tp16
Rp17
sS'specificity'
p18
g4
(g8
S'\x89\xfe1RF\xce?@'
p19
tp20
Rp21
ssS'Copy and Tweak'
p22
(dp23
g3
g4
(g8
S'0\xb1~\xf5$\x03\x06@'
p24
tp25
Rp26
sg18
g4
(g8
S'$\x7f\xc2\xdbZ\x82H@'
p27
tp28
Rp29
ssS'Hierarchical Sampling'
p30
(dp31
S'category_variance_bias'
p32
g4
(g8
S'\xdc}H\x84\x12H9@'
p33
tp34
Rp35
sg3
g4
(g8
S'\x17\xa2\xcbl\x99@\xc6@'
p36
tp37
Rp38
sS'category_mean_bias'
p39
g4
(g8
S'\xdfI\xd1;\xff\x8c\xa0@'
p40
tp41
Rp42
sS'domain_variance_bias'
p43
g4
(g8
S'\xa3\x1c\xc9}IH:@'
p44
tp45
Rp46
ss.