(dp0
S'PACKER'
p1
(dp2
S'determinism'
p3
cnumpy.core.multiarray
scalar
p4
(cnumpy
dtype
p5
(S'f8'
p6
I0
I1
tp7
Rp8
(I3
S'<'
p9
NNNI-1
I-1
I0
tp10
bS'\xc8\x00V\xf6|\xf1\x0b@'
p11
tp12
Rp13
sS'tradeoff'
p14
g4
(g8
S'\xf1$\xba\x94JM\t@'
p15
tp16
Rp17
sS'specificity'
p18
g4
(g8
S'\xf0\xa0\xf5r\xaa\xf1\xde?'
p19
tp20
Rp21
ssS'Copy and Tweak'
p22
(dp23
g3
g4
(g8
S'\x81g\xbd\x86\xee\xba\x07@'
p24
tp25
Rp26
sg18
g4
(g8
S'\xa9C\xb0 \x13s\t@'
p27
tp28
Rp29
ssS'Hierarchical Sampling'
p30
(dp31
S'category_variance_bias'
p32
g4
(g8
S'\xf6\x99\xee\x07\\! @'
p33
tp34
Rp35
sg3
g4
(g8
S'\xe1\x14\xc3\x8d\\3P@'
p36
tp37
Rp38
sS'category_mean_bias'
p39
g4
(g8
S'O\xed\xc2h~\xc9H@'
p40
tp41
Rp42
sS'domain_variance_bias'
p43
g4
(g8
S'IC7\x05\x873\x10@'
p44
tp45
Rp46
ss.