(dp0
S'PACKER'
p1
(dp2
S'determinism'
p3
cnumpy.core.multiarray
scalar
p4
(cnumpy
dtype
p5
(S'f8'
p6
I0
I1
tp7
Rp8
(I3
S'<'
p9
NNNI-1
I-1
I0
tp10
bS'\x84;3fqd\x12@'
p11
tp12
Rp13
sS'tradeoff'
p14
g4
(g8
S'\xb4\x9e\x02 {\xd9\xe1?'
p15
tp16
Rp17
sS'specificity'
p18
g4
(g8
S'Lj\xbby/\xff\xec?'
p19
tp20
Rp21
ssS'Copy and Tweak'
p22
(dp23
g3
g4
(g8
S'\xda\xcbm\x11\xbd\xc4\x07@'
p24
tp25
Rp26
sg18
g4
(g8
S'\x02""7m\x84\t@'
p27
tp28
Rp29
ssS'Hierarchical Sampling'
p30
(dp31
S'category_variance_bias'
p32
g4
(g8
S'\xaa(\xed\xa1\x96c\x16@'
p33
tp34
Rp35
sg3
g4
(g8
S'\xb3\xf3\xb5\xca\x8ee\t@'
p36
tp37
Rp38
sS'category_mean_bias'
p39
F1e-10
sS'domain_variance_bias'
p40
g4
(g8
S'L\xc5\\\x85\x04\xf0\xab?'
p41
tp42
Rp43
ss.