(dp0
S'PACKER'
p1
(dp2
S'theta_target'
p3
cnumpy.core.multiarray
scalar
p4
(cnumpy
dtype
p5
(S'f8'
p6
I0
I1
tp7
Rp8
(I3
S'<'
p9
NNNI-1
I-1
I0
tp10
bS'\xady\x89Hn\x8d\xfd?'
p11
tp12
Rp13
sS'theta_cntrst'
p14
g4
(g8
S'F\xa3@c\x8f6\xda?'
p15
tp16
Rp17
sS'specificity'
p18
g4
(g8
S'Q*\xff\xde\xc5\xda\xff?'
p19
tp20
Rp21
ssS'Copy and Tweak'
p22
(dp23
S'determinism'
p24
g4
(g8
S'\xd4v\xee\xb7\xc1\x10\x02@'
p25
tp26
Rp27
sg18
g4
(g8
S'\xcd5\xc2\xa0\x88\xef\xff?'
p28
tp29
Rp30
ssS'Hierarchical Sampling With Representativeness'
p31
(dp32
S'category_variance_bias'
p33
g4
(g8
S'\xdd{\xd6X\x91\x00\xf0?'
p34
tp35
Rp36
sg24
g4
(g8
S'\x13+\x13\xc0\x96E\xfb?'
p37
tp38
Rp39
sS'category_mean_bias'
p40
g4
(g8
S'\xad\x80N\x1b\x00\xd3&@'
p41
tp42
Rp43
sS'domain_variance_bias'
p44
g4
(g8
S'"\xeb9\x93C\xd3\xe5?'
p45
tp46
Rp47
ssS'Hierarchical Sampling'
p48
(dp49
g33
g4
(g8
S'\xdc\xdf\x06\x00\x00\x00\xf0?'
p50
tp51
Rp52
sg24
g4
(g8
S'\xe0\xe36\xa1\n\x0bQ@'
p53
tp54
Rp55
sg40
g4
(g8
S"\x83N\x1a\x1b\xfa\xd2'@"
p56
tp57
Rp58
sg44
g4
(g8
S'\xa5\x02\x19g"\xd1\xff?'
p59
tp60
Rp61
ss.