(dp0
S'PACKER'
p1
(dp2
S'determinism'
p3
F0.0
sS'tradeoff'
p4
F1.0
sS'specificity'
p5
cnumpy.core.multiarray
scalar
p6
(cnumpy
dtype
p7
(S'f8'
p8
I0
I1
tp9
Rp10
(I3
S'<'
p11
NNNI-1
I-1
I0
tp12
bS'd\xcb\x1a\xa883 @'
p13
tp14
Rp15
ssS'Copy and Tweak'
p16
(dp17
g3
F0.0
sg5
g6
(g10
S'\xf8\xf5\xc6oB\x88\x1f@'
p18
tp19
Rp20
ssS'Hierarchical Sampling'
p21
(dp22
S'category_variance_bias'
p23
g6
(g10
S'n\xf2\x1a(\xfb\x13\x12@'
p24
tp25
Rp26
sg3
I0
sS'category_mean_bias'
p27
g6
(g10
S'b\x026\xa4l\x16\xcd?'
p28
tp29
Rp30
sS'domain_variance_bias'
p31
g6
(g10
S'|\xe2\xe5\xc4~3\x05@'
p32
tp33
Rp34
ss.