(dp0
S'PACKER'
p1
(dp2
S'determinism'
p3
cnumpy.core.multiarray
scalar
p4
(cnumpy
dtype
p5
(S'f8'
p6
I0
I1
tp7
Rp8
(I3
S'<'
p9
NNNI-1
I-1
I0
tp10
bS'\xa54#\x17\x16\x86\x04@'
p11
tp12
Rp13
sS'tradeoff'
p14
g4
(g8
S'\xde\x9f\x14P2J\xe9?'
p15
tp16
Rp17
sS'specificity'
p18
g4
(g8
S'C\x98\xea\x1c\xf1\x0c\xed?'
p19
tp20
Rp21
ssS'Copy and Tweak'
p22
(dp23
g3
g4
(g8
S'\xad\xa7u\xcf\xa5\xba\x07@'
p24
tp25
Rp26
sg18
g4
(g8
S'\xf2\x8d\x9c\x0fE\x92\t@'
p27
tp28
Rp29
ssS'Hierarchical Sampling'
p30
(dp31
S'category_variance_bias'
p32
g4
(g8
S'?9\xd3}Jc\x16@'
p33
tp34
Rp35
sg3
g4
(g8
S'\xbdF\xeb\x9e~e\t@'
p36
tp37
Rp38
sS'category_mean_bias'
p39
g4
(g8
S'\xecr\r\xb8\x7f~\xdb='
p40
tp41
Rp42
sS'domain_variance_bias'
p43
g4
(g8
S'\x0c\xf8O\x16\x13\xf0\xab?'
p44
tp45
Rp46
ss.