(dp0
S'PACKER'
p1
(dp2
S'determinism'
p3
cnumpy.core.multiarray
scalar
p4
(cnumpy
dtype
p5
(S'f8'
p6
I0
I1
tp7
Rp8
(I3
S'<'
p9
NNNI-1
I-1
I0
tp10
bS'8Y\xb4Kub\x12@'
p11
tp12
Rp13
sS'tradeoff'
p14
g4
(g8
S'\\\xa17\x03R\xd8\xe1?'
p15
tp16
Rp17
sS'specificity'
p18
g4
(g8
S'N \xc4\xf5\x87\x04\xed?'
p19
tp20
Rp21
ssS'Copy and Tweak'
p22
(dp23
g3
g4
(g8
S'k\x0ec\x83\x8f\xc0\x07@'
p24
tp25
Rp26
sg18
g4
(g8
S'\xc6r\x87\x92\x9d~\t@'
p27
tp28
Rp29
ssS'Hierarchical Sampling'
p30
(dp31
S'category_variance_bias'
p32
F1.0000000001
sg3
g4
(g8
S'\xe5\x19\x16\xe3\xc4\xcf\x1f@'
p33
tp34
Rp35
sS'category_mean_bias'
p36
F1e-10
sS'domain_variance_bias'
p37
g4
(g8
S'\xeb\xa5\xf9\x9d\xf65\x12@'
p38
tp39
Rp40
ss.