(dp0
S'PACKER'
p1
(dp2
S'theta_target'
p3
cnumpy.core.multiarray
scalar
p4
(cnumpy
dtype
p5
(S'f8'
p6
I0
I1
tp7
Rp8
(I3
S'<'
p9
NNNI-1
I-1
I0
tp10
bS't\xd3\x81\x08N\xd7\xca?'
p11
tp12
Rp13
sS'theta_cntrst'
p14
g4
(g8
S'\x11%\xb9i\xe1\x84\xe8?'
p15
tp16
Rp17
sS'specificity'
p18
g4
(g8
S'\xa7\xeb\xf9\xd1\x888\x07@'
p19
tp20
Rp21
ssS'Copy and Tweak'
p22
(dp23
S'determinism'
p24
g4
(g8
S'^Y\x10\x02q7\xef?'
p25
tp26
Rp27
sg18
g4
(g8
S'yy\x1aP\x00 \x07@'
p28
tp29
Rp30
ssS'Hierarchical Sampling With Representativeness'
p31
(dp32
S'category_variance_bias'
p33
g4
(g8
S'\xe8\x966\xad\xd5i?@'
p34
tp35
Rp36
sg24
g4
(g8
S'\xd1p\xda~\x01R\x0b@'
p37
tp38
Rp39
sS'category_mean_bias'
p40
g4
(g8
S'\xaa\x97\x15SoB7>'
p41
tp42
Rp43
sS'domain_variance_bias'
p44
g4
(g8
S'\x9b\xc3/\x1b\x93!\t@'
p45
tp46
Rp47
ssS'Hierarchical Sampling'
p48
(dp49
g33
g4
(g8
S'\xdc\xbci\x01\x00\x00\xf0?'
p50
tp51
Rp52
sg24
g4
(g8
S'O\xa5\x15\xf9`|\x1d@'
p53
tp54
Rp55
sg40
g4
(g8
S'\xbb\xbd\xd7\xd9\xdf|\xdb='
p56
tp57
Rp58
sg44
g4
(g8
S'\xfa\xe8 >\x84Y\xfa?'
p59
tp60
Rp61
ss.