(dp0
S'PACKER'
p1
(dp2
S'theta_target'
p3
cnumpy.core.multiarray
scalar
p4
(cnumpy
dtype
p5
(S'f8'
p6
I0
I1
tp7
Rp8
(I3
S'<'
p9
NNNI-1
I-1
I0
tp10
bS'N\x19\xc0\xfc\xe1\x82\xf6?'
p11
tp12
Rp13
sS'theta_cntrst'
p14
g4
(g8
S'\xe2\x89\xad\x07\xeeJ\xd2?'
p15
tp16
Rp17
sS'specificity'
p18
g4
(g8
S'\xd5\xd7\xeb\xc7\x8c\x9c\xf5?'
p19
tp20
Rp21
ssS'Copy and Tweak'
p22
(dp23
S'determinism'
p24
g4
(g8
S'\xc0c\xbd\xa4{\x14\xfb?'
p25
tp26
Rp27
sg18
g4
(g8
S'\xf9\xa5(w\x1c\xae\xf5?'
p28
tp29
Rp30
ssS'Hierarchical Sampling With Representativeness'
p31
(dp32
S'category_variance_bias'
p33
g4
(g8
S'6\x99\xdfQ\x00\x00\xf0?'
p34
tp35
Rp36
sg24
g4
(g8
S'\xdc\xab\x17X\x17\xf4\x00@'
p37
tp38
Rp39
sS'category_mean_bias'
p40
g4
(g8
S'Gy\xc3\x14}\x82\x18@'
p41
tp42
Rp43
sS'domain_variance_bias'
p44
g4
(g8
S'\xeaZ\xde\x02O\x1a\x05@'
p45
tp46
Rp47
ss.