(dp0
S'PACKER'
p1
(dp2
S'determinism'
p3
cnumpy.core.multiarray
scalar
p4
(cnumpy
dtype
p5
(S'f8'
p6
I0
I1
tp7
Rp8
(I3
S'<'
p9
NNNI-1
I-1
I0
tp10
bS'r(\x02\x00\xf6\x98\xf4?'
p11
tp12
Rp13
sS'tradeoff'
p14
g4
(g8
S'\xabG\xc2\x1fg \xef?'
p15
tp16
Rp17
sS'specificity'
p18
g4
(g8
S'\x16\xc6o\xcd\xf6\xdc\xff?'
p19
tp20
Rp21
ssS'Copy and Tweak'
p22
(dp23
g3
g4
(g8
S'\xd1|+\xbas\x0e\x02@'
p24
tp25
Rp26
sg18
g4
(g8
S'\xfff\xa9\xb4t\xe1\xff?'
p27
tp28
Rp29
ssS'Hierarchical Sampling With Representativeness'
p30
(dp31
S'category_variance_bias'
p32
g4
(g8
S'\xa4:J\x8cf<\xf0?'
p33
tp34
Rp35
sg3
g4
(g8
S'\xfa\xd3\xe96B\x19\xf0?'
p36
tp37
Rp38
sS'category_mean_bias'
p39
g4
(g8
S';.\x0e=\x11:$@'
p40
tp41
Rp42
sS'domain_variance_bias'
p43
g4
(g8
S'\xeb\xe3\xe3~\x17\xdb\xd7?'
p44
tp45
Rp46
ssS'Hierarchical Sampling'
p47
(dp48
g32
g4
(g8
S'\t\xe2\x06\x00\x00\x00\xf0?'
p49
tp50
Rp51
sg3
g4
(g8
S'\xa7\xe9\xbb\xc3\n\x0bQ@'
p52
tp53
Rp54
sg39
g4
(g8
S"\xf3iOE\xfa\xd2'@"
p55
tp56
Rp57
sg43
g4
(g8
S'\x8d\x16\x9e\x83"\xd1\xff?'
p58
tp59
Rp60
ss.