(dp0
S'PACKER'
p1
(dp2
S'determinism'
p3
cnumpy.core.multiarray
scalar
p4
(cnumpy
dtype
p5
(S'f8'
p6
I0
I1
tp7
Rp8
(I3
S'<'
p9
NNNI-1
I-1
I0
tp10
bS'J@\xf5\x91\x81\xa7\x1a@'
p11
tp12
Rp13
sS'tradeoff'
p14
g4
(g8
S'\xe2{;\xe7\xa2\xcc\xe0?'
p15
tp16
Rp17
sS'specificity'
p18
g4
(g8
S'\xab\x08T\xca\xaa\xde\xde?'
p19
tp20
Rp21
ssS'Copy and Tweak'
p22
(dp23
g3
g4
(g8
S'\x98\xcbJ|W\xc1\x07@'
p24
tp25
Rp26
sg18
g4
(g8
S'<\xb8\xf0\x15:\x7f\t@'
p27
tp28
Rp29
ssS'Hierarchical Sampling'
p30
(dp31
S'category_variance_bias'
p32
F1.0000000001
sg3
g4
(g8
S':\xd0\xa2f\xd7\xcd\x1f@'
p33
tp34
Rp35
sS'category_mean_bias'
p36
F1e-10
sS'domain_variance_bias'
p37
g4
(g8
S'\xbb\xd0\xf3I\xdct\xd6?'
p38
tp39
Rp40
ss.