(dp0
S'PACKER'
p1
(dp2
S'determinism'
p3
cnumpy.core.multiarray
scalar
p4
(cnumpy
dtype
p5
(S'f8'
p6
I0
I1
tp7
Rp8
(I3
S'<'
p9
NNNI-1
I-1
I0
tp10
bS'\xde\xe7\x94\x84,\xfa\x0b@'
p11
tp12
Rp13
sS'tradeoff'
p14
g4
(g8
S'\xf2\xc9\x97I\x80\xed\xec?'
p15
tp16
Rp17
sS'specificity'
p18
g4
(g8
S'\x1b\x9awkc\xdf\xde?'
p19
tp20
Rp21
ssS'Copy and Tweak'
p22
(dp23
g3
g4
(g8
S'B\xa3\x15k\xb3\xd5\x07@'
p24
tp25
Rp26
sg18
g4
(g8
S'\xa1\x9f\x03rU\x9d\t@'
p27
tp28
Rp29
ssS'Hierarchical Sampling'
p30
(dp31
S'category_variance_bias'
p32
g4
(g8
S'\x92F\x98\x01Kc\x16@'
p33
tp34
Rp35
sg3
g4
(g8
S'"\\\xca\xd9~e\t@'
p36
tp37
Rp38
sS'category_mean_bias'
p39
g4
(g8
S'Bz\xc1h)\x83\xdb='
p40
tp41
Rp42
sS'domain_variance_bias'
p43
g4
(g8
S'\x0e\xb6q\x89\x13\xf0\xab?'
p44
tp45
Rp46
ss.