(dp0
S'PACKER'
p1
(dp2
S'determinism'
p3
cnumpy.core.multiarray
scalar
p4
(cnumpy
dtype
p5
(S'f8'
p6
I0
I1
tp7
Rp8
(I3
S'<'
p9
NNNI-1
I-1
I0
tp10
bS'l>\xda\x1d\x95e\x12@'
p11
tp12
Rp13
sS'tradeoff'
p14
g4
(g8
S'\xfco&\xc4p\xd6\xe1?'
p15
tp16
Rp17
sS'specificity'
p18
g4
(g8
S'\xb6k"\x03\xe5\xf8\xec?'
p19
tp20
Rp21
ssS'Copy and Tweak'
p22
(dp23
g3
g4
(g8
S'\x1e\xacQ\x98G\xbf\x07@'
p24
tp25
Rp26
sg18
g4
(g8
S'\x13\xeb\xa2\x06\xe9\x87\t@'
p27
tp28
Rp29
ssS'Hierarchical Sampling'
p30
(dp31
S'category_variance_bias'
p32
g4
(g8
S'\xf5\xc6B8\xe6_\x16@'
p33
tp34
Rp35
sg3
g4
(g8
S'\xdbu\xdc\xa4\x0eg\t@'
p36
tp37
Rp38
sS'category_mean_bias'
p39
F1e-10
sS'domain_variance_bias'
p40
g4
(g8
S'\xbc\xd4qM$\xf7\xab?'
p41
tp42
Rp43
ss.