(dp0
S'PACKER'
p1
(dp2
S'theta_target'
p3
cnumpy.core.multiarray
scalar
p4
(cnumpy
dtype
p5
(S'f8'
p6
I0
I1
tp7
Rp8
(I3
S'<'
p9
NNNI-1
I-1
I0
tp10
bS'\xf6\xf1%\x14\x03\xe5\x0b@'
p11
tp12
Rp13
sS'theta_cntrst'
p14
g4
(g8
S'\xc8\xab\xa8F<:\t@'
p15
tp16
Rp17
sS'specificity'
p18
g4
(g8
S'#\xe9Ab]\x0f\xdf?'
p19
tp20
Rp21
ssS'Copy and Tweak'
p22
(dp23
S'determinism'
p24
g4
(g8
S'\xe3EQ\x16\x10\xbe\x07@'
p25
tp26
Rp27
sg18
g4
(g8
S'\xaeXd\xd9$y\t@'
p28
tp29
Rp30
ssS'Hierarchical Sampling With Representativeness'
p31
(dp32
S'category_variance_bias'
p33
g4
(g8
S'\x9e\xac\xa2\xbaH@\xff?'
p34
tp35
Rp36
sg24
g4
(g8
S';\xf1\xbe\x1d\xde\x15\x0f@'
p37
tp38
Rp39
sS'category_mean_bias'
p40
g4
(g8
S'\xe3\x02*\xe2\xbb\xed\xd0?'
p41
tp42
Rp43
sS'domain_variance_bias'
p44
g4
(g8
S'6%\x88Q,\x93\x13@'
p45
tp46
Rp47
ssS'Hierarchical Sampling'
p48
(dp49
g33
g4
(g8
S'\x11\x91ZLKc\x16@'
p50
tp51
Rp52
sg24
g4
(g8
S'\xbe\xe4B\xcf~e\t@'
p53
tp54
Rp55
sg40
g4
(g8
S'q\x11\xf5\tp~\xdb='
p56
tp57
Rp58
sg44
g4
(g8
S'\xa8R\xb1\xe7\x12\xf0\xab?'
p59
tp60
Rp61
ss.