(dp0
S'Copy and Tweak'
p1
cnumpy.core.multiarray
scalar
p2
(cnumpy
dtype
p3
(S'f8'
p4
I0
I1
tp5
Rp6
(I3
S'<'
p7
NNNI-1
I-1
I0
tp8
bS'\xf7\x9bT[\x99\xf3\xb8@'
p9
tp10
Rp11
sS'Hierarchical Sampling With Representativeness'
p12
g2
(g6
S'\x0f+\xeb\x85\xbbT\xb7@'
p13
tp14
Rp15
sS'PACKER'
p16
g2
(g6
S'5g\xe0\x95\x95x\xb7@'
p17
tp18
Rp19
sS'Hierarchical Sampling'
p20
g2
(g6
S'\xeb\xc2\x85\xc4oT\xb9@'
p21
tp22
Rp23
sS'PACKER Rep'
p24
g2
(g6
S'9\xf7\xaa\xb3\x90\x9f\xd9@'
p25
tp26
Rp27
sS'Copy and Tweak Rep'
p28
g2
(g6
S'Or\xc0\xd4\x03\x9d\xb8@'
p29
tp30
Rp31
s.