(dp0
S'PACKER'
p1
cnumpy.core.multiarray
scalar
p2
(cnumpy
dtype
p3
(S'f8'
p4
I0
I1
tp5
Rp6
(I3
S'<'
p7
NNNI-1
I-1
I0
tp8
bS'\xdf\xcf\x8d\xd7ca\xaa@'
p9
tp10
Rp11
sS'Copy and Tweak'
p12
g2
(g6
S'\xa1\xad\x93\r\xe0\xd8\xab@'
p13
tp14
Rp15
sS'Hierarchical Sampling With Representativeness'
p16
g2
(g6
S'T\x19\xcb\x1a9\xac\xa9@'
p17
tp18
Rp19
sS'Hierarchical Sampling'
p20
g2
(g6
S'\xb38\x1b\xabX\x19\xac@'
p21
tp22
Rp23
s.