(dp0
S'PACKER'
p1
cnumpy.core.multiarray
scalar
p2
(cnumpy
dtype
p3
(S'f8'
p4
I0
I1
tp5
Rp6
(I3
S'<'
p7
NNNI-1
I-1
I0
tp8
bS')\xac64f\xb3\xb1@'
p9
tp10
Rp11
sS'Copy and Tweak'
p12
g2
(g6
S'\xf3\xde\xd3\x9d\xbe(\xb3@'
p13
tp14
Rp15
sS'Hierarchical Sampling With Representativeness'
p16
g2
(g6
S'`\x9eA\xee\xbc#\xb1@'
p17
tp18
Rp19
sS'Hierarchical Sampling'
p20
g2
(g6
S'{\xa4\x97\xec\xfaH\xb3@'
p21
tp22
Rp23
s.