(dp0
S'PACKER'
p1
(dp2
S'theta_target'
p3
cnumpy.core.multiarray
scalar
p4
(cnumpy
dtype
p5
(S'f8'
p6
I0
I1
tp7
Rp8
(I3
S'<'
p9
NNNI-1
I-1
I0
tp10
bS'\xaa>\x9a`2\x04\x0c@'
p11
tp12
Rp13
sS'theta_cntrst'
p14
g4
(g8
S'XR\x8ev\xb4b\t@'
p15
tp16
Rp17
sS'specificity'
p18
g4
(g8
S'\xf2y\xd5\xa2\xc4\xc4\xde?'
p19
tp20
Rp21
ssS'Copy and Tweak'
p22
(dp23
S'determinism'
p24
g4
(g8
S'N\x18S\xca%\xbe\x07@'
p25
tp26
Rp27
sg18
g4
(g8
S'\x14\x9aH6bl\t@'
p28
tp29
Rp30
ssS'Hierarchical Sampling With Representativeness'
p31
(dp32
S'category_variance_bias'
p33
g4
(g8
S'\xe0\xe2\x9b.q&\xf5?'
p34
tp35
Rp36
sg24
g4
(g8
S'S\x80\xed\xd8\x19_\xef?'
p37
tp38
Rp39
sS'category_mean_bias'
p40
g4
(g8
S'\xefgSX>\x98\xfd?'
p41
tp42
Rp43
sS'domain_variance_bias'
p44
g4
(g8
S'CuR\x9a9G\x01@'
p45
tp46
Rp47
ssS'Hierarchical Sampling'
p48
(dp49
g33
g4
(g8
S'\x03\x81F\xeaVd\x16@'
p50
tp51
Rp52
sg24
g4
(g8
S'`\xd3\xb9\xbcce\t@'
p53
tp54
Rp55
sg40
g4
(g8
S'F\xaa\x02\xbai\x89\x8f>'
p56
tp57
Rp58
sg44
g4
(g8
S'Y:\x93*\xd1\xed\xab?'
p59
tp60
Rp61
ss.