(dp0
S'PACKER'
p1
(dp2
S'theta_target'
p3
cnumpy.core.multiarray
scalar
p4
(cnumpy
dtype
p5
(S'f8'
p6
I0
I1
tp7
Rp8
(I3
S'<'
p9
NNNI-1
I-1
I0
tp10
bS'z\xc6z\x15\xf4\x81\x04@'
p11
tp12
Rp13
sS'theta_cntrst'
p14
g4
(g8
S'\xe4^\xd0E\x8bK\x00@'
p15
tp16
Rp17
sS'specificity'
p18
g4
(g8
S'}*\xce\x90\x8d\xf9\xec?'
p19
tp20
Rp21
ssS'Copy and Tweak'
p22
(dp23
S'determinism'
p24
g4
(g8
S'\xe7\xd2,W\x10\xcd\x07@'
p25
tp26
Rp27
sg18
g4
(g8
S'\x9f \xec}r\x8a\t@'
p28
tp29
Rp30
ssS'Hierarchical Sampling With Representativeness'
p31
(dp32
S'category_variance_bias'
p33
g4
(g8
S'\xff(\xf4\xa8\xf2!\x10@'
p34
tp35
Rp36
sg24
g4
(g8
S'\xb7P\xda\xebw\xee\t@'
p37
tp38
Rp39
sS'category_mean_bias'
p40
g4
(g8
S's\x84$N\x80;\xdb?'
p41
tp42
Rp43
sS'domain_variance_bias'
p44
g4
(g8
S'\x0f\r\xa1$\xbb\x94\t@'
p45
tp46
Rp47
ssS'Hierarchical Sampling'
p48
(dp49
g33
g4
(g8
S'@X\x0f,+c\x16@'
p50
tp51
Rp52
sg24
g4
(g8
S'\xfb\x1e\x08\xb0qe\t@'
p53
tp54
Rp55
sg40
g4
(g8
S'\xbb\xbd\xd7\xd9\xdf|\xdb='
p56
tp57
Rp58
sg44
g4
(g8
S'\x06(-\xbb\xf4\xef\xab?'
p59
tp60
Rp61
ss.