(dp0
S'PACKER'
p1
(dp2
S'theta_target'
p3
cnumpy.core.multiarray
scalar
p4
(cnumpy
dtype
p5
(S'f8'
p6
I0
I1
tp7
Rp8
(I3
S'<'
p9
NNNI-1
I-1
I0
tp10
bS'#\x94Xob\xfc\x05@'
p11
tp12
Rp13
sS'theta_cntrst'
p14
g4
(g8
S'Hz~\x14\xec\x08k?'
p15
tp16
Rp17
sS'specificity'
p18
g4
(g8
S'\xa6#L\x9f\xcc\x89A@'
p19
tp20
Rp21
ssS'Copy and Tweak'
p22
(dp23
S'determinism'
p24
g4
(g8
S'\xda\xf7\x12\xee$\x03\x06@'
p25
tp26
Rp27
sg18
g4
(g8
S'"\xdf\xb7\x9d\xebOF@'
p28
tp29
Rp30
ssS'Hierarchical Sampling With Representativeness'
p31
(dp32
S'category_variance_bias'
p33
g4
(g8
S'\xd7\x95\xd8^\xcb\x0b%A'
p34
tp35
Rp36
sg24
g4
(g8
S'U}\xdd\x88#6\xafA'
p37
tp38
Rp39
sS'category_mean_bias'
p40
g4
(g8
S'q\x16B\xa3\x10\xcd\x87A'
p41
tp42
Rp43
sS'domain_variance_bias'
p44
g4
(g8
S'G!\xa0%U+6@'
p45
tp46
Rp47
ssS'Hierarchical Sampling'
p48
(dp49
g33
g4
(g8
S'?\xdf\x06\x00\x00\x00\xf0?'
p50
tp51
Rp52
sg24
g4
(g8
S'\x91\x10-\xf4\x85\x89X@'
p53
tp54
Rp55
sg40
g4
(g8
S'\xbb\xbd\xd7\xd9\xdf|\xdb='
p56
tp57
Rp58
sg44
g4
(g8
S'n\\\xa5\x93\xa1\x0c\xd2?'
p59
tp60
Rp61
ss.