(dp0
S'Copy and Tweak'
p1
cnumpy.core.multiarray
scalar
p2
(cnumpy
dtype
p3
(S'f8'
p4
I0
I1
tp5
Rp6
(I3
S'<'
p7
NNNI-1
I-1
I0
tp8
bS'\xa1\xad\x93\r\xe0\xd8\xab@'
p9
tp10
Rp11
sS'Hierarchical Sampling With Representativeness'
p12
g2
(g6
S'\xc5v \xd1\x89\xac\xa9@'
p13
tp14
Rp15
sS'PACKER'
p16
g2
(g6
S'\xdf\xcf\x8d\xd7ca\xaa@'
p17
tp18
Rp19
sS'Hierarchical Sampling'
p20
g2
(g6
S'\xb38\x1b\xabX\x19\xac@'
p21
tp22
Rp23
sS'PACKER Rep'
p24
g2
(g6
S'\xc86\xb4)?E\xb8@'
p25
tp26
Rp27
sS'Copy and Tweak Rep'
p28
g2
(g6
S'\xce\xe2\xf1i\x8d$\xab@'
p29
tp30
Rp31
s.