(dp0
S'Negated Space'
p1
(dp2
S'chunkidx'
p3
(lp4
I2
aI3
asS'parmnames'
p5
(lp6
S'determinism'
p7
asS'bestparmsll'
p8
cnumpy.core.multiarray
_reconstruct
p9
(cnumpy
ndarray
p10
(I0
tp11
S'b'
p12
tp13
Rp14
(I1
(I3
tp15
cnumpy
dtype
p16
(S'f8'
p17
I0
I1
tp18
Rp19
(I3
S'<'
p20
NNNI-1
I-1
I0
tp21
bI00
S'@\xa3\x8cV\xfc\xb7\xe0?\x0e\x16\x8fz\xfd;\xcd@\x0e\x16\x8fz}<\xdd@'
p22
tp23
bsS'startparms'
p24
g9
(g10
(I0
tp25
g12
tp26
Rp27
(I1
(I1
I1
tp28
g19
I00
S' \x85\xebQ\xb8\x1e\x05@'
p29
tp30
bsS'chunkstartparms'
p31
g9
(g10
(I0
tp32
g12
tp33
Rp34
(I1
(I1
I1
tp35
g19
I00
S' \x85\xebQ\xb8\x1e\x05@'
p36
tp37
bsS'finalparmsll'
p38
g9
(g10
(I0
tp39
g12
tp40
Rp41
(I1
(I1
I3
tp42
g19
I00
S'@\xa3\x8cV\xfc\xb7\xe0?\x0e\x16\x8fz\xfd;\xcd@\x0e\x16\x8fz}<\xdd@'
p43
tp44
bss.