(dp0
S'Copy and Tweak Rep'
p1
(dp2
S'chunkidx'
p3
(lp4
I11
aI12
asS'parmnames'
p5
(lp6
S'specificity'
p7
aS'determinism'
p8
asS'bestparmsll'
p9
cnumpy.core.multiarray
_reconstruct
p10
(cnumpy
ndarray
p11
(I0
tp12
S'b'
p13
tp14
Rp15
(I1
(I4
tp16
cnumpy
dtype
p17
(S'f8'
p18
I0
I1
tp19
Rp20
(I3
S'<'
p21
NNNI-1
I-1
I0
tp22
bI00
S'\x81%\xb1G\xe1z\x84?\x9es\xc7\xd1}\xc3p@\xd6\xbc\x19127\x97@\xd6\xbc\x1912?\xa7@'
p23
tp24
bsS'startparms'
p25
g10
(g11
(I0
tp26
g13
tp27
Rp28
(I1
(I1
I2
tp29
g20
I00
S'\xe3z\x14\xaeG\xe1\xfe?>\n\xd7\xa3p=\x13@'
p30
tp31
bsS'chunkstartparms'
p32
g10
(g11
(I0
tp33
g13
tp34
Rp35
(I1
(I1
I2
tp36
g20
I00
S'\xe3z\x14\xaeG\xe1\xfe?>\n\xd7\xa3p=\x13@'
p37
tp38
bsS'finalparmsll'
p39
g10
(g11
(I0
tp40
g13
tp41
Rp42
(I1
(I1
I4
tp43
g20
I00
S'\x81%\xb1G\xe1z\x84?\x9es\xc7\xd1}\xc3p@\xd6\xbc\x19127\x97@\xd6\xbc\x1912?\xa7@'
p44
tp45
bss.